target datalayout = "e-m:e-p270:32:32-p271:32:32-p272:64:64-i64:64-i128:128-f80:128-n8:16:32:64-S128"
target triple = "x86_64-pc-linux-gnu"

%struct.pkcs12_st = type { ptr, i64 }

; Function Attrs: nounwind uwtable
define hidden void @PKCS12_free(ptr noundef %0) #0 {
  %2 = alloca ptr, align 8
  store ptr %0, ptr %2, align 8, !tbaa !79
  %3 = load ptr, ptr %2, align 8, !tbaa !79
  %4 = icmp eq ptr %3, null
  br i1 %4, label %5, label %6

5:                                                ; preds = %1
  br label %11

6:                                                ; preds = %1
  %7 = load ptr, ptr %2, align 8, !tbaa !79
  %8 = getelementptr inbounds nuw %struct.pkcs12_st, ptr %7, i32 0, i32 0
  %9 = load ptr, ptr %8, align 8, !tbaa !81
  call void @free(ptr noundef %9) #8
  %10 = load ptr, ptr %2, align 8, !tbaa !79
  call void @free(ptr noundef %10) #8
  br label %11

11:                                               ; preds = %6, %5
  ret void
}

; Function Attrs: nounwind uwtable
define hidden ptr @d2i_PKCS12(ptr noundef %0, ptr noundef %1, i64 noundef %2) #0 {
  %4 = alloca ptr, align 8
  %5 = alloca ptr, align 8
  %6 = alloca ptr, align 8
  %7 = alloca i64, align 8
  %8 = alloca ptr, align 8
  %9 = alloca i32, align 4
  store ptr %0, ptr %5, align 8, !tbaa !77
  store ptr %1, ptr %6, align 8, !tbaa !27
  store i64 %2, ptr %7, align 8, !tbaa !15
  call void @llvm.lifetime.start.p0(i64 8, ptr %8) #8
  %10 = call noalias ptr @malloc(i64 noundef 16) #10
  store ptr %10, ptr %8, align 8, !tbaa !79
  %11 = load ptr, ptr %8, align 8, !tbaa !79
  %12 = icmp ne ptr %11, null
  br i1 %12, label %14, label %13

13:                                               ; preds = %3
  store ptr null, ptr %4, align 8
  store i32 1, ptr %9, align 4
  br label %48

14:                                               ; preds = %3
  %15 = load i64, ptr %7, align 8, !tbaa !15
  %16 = call noalias ptr @malloc(i64 noundef %15) #10
  %17 = load ptr, ptr %8, align 8, !tbaa !79
  %18 = getelementptr inbounds nuw %struct.pkcs12_st, ptr %17, i32 0, i32 0
  store ptr %16, ptr %18, align 8, !tbaa !81
  %19 = load ptr, ptr %8, align 8, !tbaa !79
  %20 = getelementptr inbounds nuw %struct.pkcs12_st, ptr %19, i32 0, i32 0
  %21 = load ptr, ptr %20, align 8, !tbaa !81
  %22 = icmp ne ptr %21, null
  br i1 %22, label %25, label %23

23:                                               ; preds = %14
  %24 = load ptr, ptr %8, align 8, !tbaa !79
  call void @free(ptr noundef %24) #8
  store ptr null, ptr %4, align 8
  store i32 1, ptr %9, align 4
  br label %48

25:                                               ; preds = %14
  %26 = load ptr, ptr %8, align 8, !tbaa !79
  %27 = getelementptr inbounds nuw %struct.pkcs12_st, ptr %26, i32 0, i32 0
  %28 = load ptr, ptr %27, align 8, !tbaa !81
  %29 = load ptr, ptr %6, align 8, !tbaa !27
  %30 = load ptr, ptr %29, align 8, !tbaa !11
  %31 = load i64, ptr %7, align 8, !tbaa !15
  call void @llvm.memcpy.p0.p0.i64(ptr align 1 %28, ptr align 1 %30, i64 %31, i1 false)
  %32 = load i64, ptr %7, align 8, !tbaa !15
  %33 = load ptr, ptr %8, align 8, !tbaa !79
  %34 = getelementptr inbounds nuw %struct.pkcs12_st, ptr %33, i32 0, i32 1
  store i64 %32, ptr %34, align 8, !tbaa !83
  %35 = load i64, ptr %7, align 8, !tbaa !15
  %36 = load ptr, ptr %6, align 8, !tbaa !27
  %37 = load ptr, ptr %36, align 8, !tbaa !11
  %38 = getelementptr inbounds nuw i8, ptr %37, i64 %35
  store ptr %38, ptr %36, align 8, !tbaa !11
  %39 = load ptr, ptr %5, align 8, !tbaa !77
  %40 = icmp ne ptr %39, null
  br i1 %40, label %41, label %46

41:                                               ; preds = %25
  %42 = load ptr, ptr %5, align 8, !tbaa !77
  %43 = load ptr, ptr %42, align 8, !tbaa !79
  call void @PKCS12_free(ptr noundef %43)
  %44 = load ptr, ptr %8, align 8, !tbaa !79
  %45 = load ptr, ptr %5, align 8, !tbaa !77
  store ptr %44, ptr %45, align 8, !tbaa !79
  br label %46

46:                                               ; preds = %41, %25
  %47 = load ptr, ptr %8, align 8, !tbaa !79
  store ptr %47, ptr %4, align 8
  store i32 1, ptr %9, align 4
  br label %48

48:                                               ; preds = %46, %23, %13
  call void @llvm.lifetime.end.p0(i64 8, ptr %8) #8
  %49 = load ptr, ptr %4, align 8
  ret ptr %49
}