; Function Attrs: mustprogress nounwind willreturn uwtable
define hidden noundef ptr @d2i_PKCS12(ptr noundef captures(address_is_null) %0, ptr noundef captures(none) %1, i64 noundef %2) local_unnamed_addr #8 {
  %4 = tail call noalias dereferenceable_or_null(16) ptr @malloc(i64 noundef 16) #14
  %.not = icmp eq ptr %4, null
  br i1 %.not, label %17, label %5

5:                                                ; preds = %3
  %6 = tail call noalias ptr @malloc(i64 noundef %2) #14
  store ptr %6, ptr %4, align 8, !tbaa !50
  %.not20 = icmp eq ptr %6, null
  br i1 %.not20, label %7, label %8

7:                                                ; preds = %5
  tail call void @free(ptr noundef nonnull %4) #12
  br label %17

8:                                                ; preds = %5
  %9 = load ptr, ptr %1, align 8, !tbaa !6
  tail call void @llvm.memcpy.p0.p0.i64(ptr nonnull align 1 %6, ptr align 1 %9, i64 %2, i1 false)
  %10 = getelementptr inbounds nuw i8, ptr %4, i64 8
  store i64 %2, ptr %10, align 8, !tbaa !52
  %11 = getelementptr inbounds nuw i8, ptr %9, i64 %2
  store ptr %11, ptr %1, align 8, !tbaa !6
  %.not21 = icmp eq ptr %0, null
  br i1 %.not21, label %17, label %12

12:                                               ; preds = %8
  %13 = load ptr, ptr %0, align 8, !tbaa !53
  %14 = icmp eq ptr %13, null
  br i1 %14, label %PKCS12_free.exit, label %15

15:                                               ; preds = %12
  %16 = load ptr, ptr %13, align 8, !tbaa !50
  tail call void @free(ptr noundef %16) #12
  tail call void @free(ptr noundef nonnull %13) #12
  br label %PKCS12_free.exit

PKCS12_free.exit:                                 ; preds = %12, %15
  store ptr %4, ptr %0, align 8, !tbaa !53
  br label %17

17:                                               ; preds = %8, %PKCS12_free.exit, %3, %7
  %.0 = phi ptr [ null, %7 ], [ null, %3 ], [ %4, %PKCS12_free.exit ], [ %4, %8 ]
  ret ptr %.0
}